target datalayout = "e-m:e-p270:32:32-p271:32:32-p272:64:64-i64:64-i128:128-f80:128-n8:16:32:64-S128"
target triple = "x86_64-pc-linux-gnu"

%struct.Curl_llist_node = type { ptr, ptr, ptr, ptr }
%struct.ip_quadruple = type { [46 x i8], [46 x i8], i32, i32 }
%struct.easy_pollset = type { [5 x i32], i32, [5 x i8] }
%struct.ssl_primary_config = type { ptr, ptr, ptr, ptr, ptr, ptr, ptr, ptr, ptr, ptr, ptr, ptr, ptr, ptr, i8, i32, i8, i8 }
%struct.curltime = type { i64, i32 }
%struct.Curl_llist = type { ptr, ptr, ptr, i64 }
%struct.dynbuf = type { ptr, i64, i64, i64 }
%struct.Curl_easy = type { i32, i64, i64, ptr, %struct.Curl_llist_node, %struct.Curl_llist_node, i32, i32, %struct.Curl_message, %struct.easy_pollset, %struct.Names, ptr, ptr, ptr, ptr, %struct.SingleRequest, %struct.UserDefined, ptr, ptr, ptr, %struct.Progress, %struct.UrlState, ptr, %struct.PureInfo, %struct.curl_tlssessioninfo }
%struct.Curl_message = type { %struct.Curl_llist_node, %struct.CURLMsg }
%struct.CURLMsg = type { i32, ptr, %union.anon.2 }
%union.anon.2 = type { ptr }
%struct.Names = type { ptr, i32 }
%struct.SingleRequest = type <{ i64, i64, i64, i64, %struct.curltime, i32, i32, i32, i32, i64, i32, i32, i8, i8, [2 x i8], i32, ptr, ptr, %struct.bufq, i64, i64, ptr, ptr, %union.anon.3, ptr, i8, i32, [3 x i8] }>
%struct.bufq = type { ptr, ptr, ptr, ptr, i64, i64, i64, i32 }
%union.anon.3 = type { ptr }
%struct.UserDefined = type <{ ptr, ptr, ptr, ptr, ptr, ptr, i64, i64, i64, ptr, ptr, i64, ptr, ptr, ptr, ptr, ptr, ptr, ptr, ptr, ptr, ptr, ptr, ptr, ptr, ptr, ptr, ptr, ptr, ptr, ptr, ptr, ptr, ptr, ptr, i64, i64, i64, i64, i64, i64, i64, i64, i64, ptr, ptr, %struct.curl_mimepart, ptr, ptr, ptr, i64, %struct.ssl_config_data, %struct.ssl_config_data, ptr, i16, i8, i8, %struct.ssl_general_config, i32, i32, i32, [4 x i8], ptr, ptr, i64, i32, i8, i8, i8, i8, ptr, ptr, ptr, i32, [4 x i8], [74 x ptr], [8 x ptr], i32, i32, i32, [4 x i8], ptr, i32, [4 x i8], ptr, ptr, ptr, ptr, ptr, i32, i32, i32, i32, i32, i32, i32, i32, i64, ptr, ptr, i64, ptr, i64, ptr, ptr, ptr, ptr, i32, i16, i16, i16, i8, i8, i8, i8, i8, i8, i8, i8, i64, [6 x i8] }>
%struct.curl_mimepart = type { ptr, ptr, i32, i32, ptr, ptr, ptr, ptr, ptr, ptr, ptr, ptr, ptr, ptr, ptr, i64, %struct.mime_state, ptr, %struct.mime_encoder_state, i64 }
%struct.mime_state = type { i32, ptr, i64 }
%struct.mime_encoder_state = type { i64, i64, i64, [256 x i8] }
%struct.ssl_config_data = type { %struct.ssl_primary_config, i64, ptr, ptr, ptr, ptr, ptr, ptr, ptr, i16 }
%struct.ssl_general_config = type { i32 }
%struct.Progress = type { i64, %struct.pgrs_dir, %struct.pgrs_dir, i64, i64, i32, i32, i64, i64, i64, i64, i64, i64, i64, i64, i64, %struct.curltime, %struct.curltime, %struct.curltime, %struct.curltime, %struct.curltime, [6 x i64], [6 x %struct.curltime], i32, i8 }
%struct.pgrs_dir = type { i64, i64, i64, %struct.pgrs_measure }
%struct.pgrs_measure = type { %struct.curltime, i64 }
%struct.UrlState = type { %struct.curltime, i64, i64, %struct.dynbuf, ptr, i64, ptr, i32, i32, i32, ptr, i32, i64, i32, ptr, %struct.digestdata, %struct.digestdata, %struct.auth, %struct.auth, %struct.Curl_async, ptr, i8, %struct.curltime, %struct.Curl_tree, %struct.Curl_llist, [15 x %struct.time_node], ptr, ptr, i64, i64, i64, i64, [32 x i8], i64, ptr, ptr, ptr, %struct.urlpieces, ptr, ptr, ptr, ptr, ptr, i64, %struct.dynbuf, %struct.Curl_llist, [2 x %struct.curl_header], ptr, i32, ptr, ptr, %struct.store_netrc, %struct.dynamically_allocated_data, i8, i8, i8, i8, i32 }
%struct.digestdata = type { ptr, ptr, ptr, ptr, ptr, ptr, i32, i8, i8 }
%struct.auth = type { i64, i64, i64, i8 }
%struct.Curl_async = type { ptr, ptr, ptr, ptr, i32, i32, i8 }
%struct.Curl_tree = type { ptr, ptr, ptr, ptr, %struct.curltime, ptr }
%struct.time_node = type { %struct.Curl_llist_node, %struct.curltime, i32 }
%struct.urlpieces = type { ptr, ptr, ptr, ptr, ptr, ptr, ptr, ptr }
%struct.curl_header = type { ptr, ptr, i64, i64, i32, ptr }
%struct.store_netrc = type { %struct.dynbuf, ptr, i8 }
%struct.dynamically_allocated_data = type { ptr, ptr, ptr, ptr, ptr, ptr, ptr, ptr, ptr, ptr, ptr, ptr, ptr, ptr }
%struct.PureInfo = type { i32, i32, i32, i64, i64, i64, i64, i64, i64, i64, ptr, ptr, i64, i32, %struct.ip_quadruple, i32, ptr, i32, %struct.curl_certinfo, i32, i8 }
%struct.curl_certinfo = type { i32, ptr }
%struct.curl_tlssessioninfo = type { i32, ptr }
%struct.tftp_state_data = type { i32, i32, i32, i32, ptr, i32, i32, i32, i32, i64, %struct.Curl_sockaddr_storage, %struct.Curl_sockaddr_storage, i32, i32, i32, i32, i32, i16, %struct.tftp_packet, %struct.tftp_packet }
%struct.Curl_sockaddr_storage = type { %union.anon.0 }
%union.anon.0 = type { %struct.sockaddr_storage }
%struct.sockaddr_storage = type { i16, [118 x i8], i64 }
%struct.tftp_packet = type { ptr }
%struct.curl_trc_feat = type { ptr, i32 }

@.str.2 = private unnamed_addr constant [20 x i8] c"Connection time-out\00", align 1
@.str.3 = private unnamed_addr constant [58 x i8] c"set timeouts for state %d; Total % ld, retry %d maxtry %d\00", align 1

; Function Attrs: nounwind uwtable
define internal i32 @tftp_set_timeouts(ptr noundef %0) #0 {
  %2 = alloca i32, align 4
  %3 = alloca ptr, align 8
  %4 = alloca i64, align 8
  %5 = alloca i64, align 8
  %6 = alloca i64, align 8
  %7 = alloca i8, align 1
  %8 = alloca i32, align 4
  store ptr %0, ptr %3, align 8, !tbaa !96
  call void @llvm.lifetime.start.p0(i64 8, ptr %4) #6
  call void @llvm.lifetime.start.p0(i64 8, ptr %5) #6
  call void @llvm.lifetime.start.p0(i64 8, ptr %6) #6
  call void @llvm.lifetime.start.p0(i64 1, ptr %7) #6
  %9 = load ptr, ptr %3, align 8, !tbaa !96
  %10 = getelementptr inbounds nuw %struct.tftp_state_data, ptr %9, i32 0, i32 0
  %11 = load i32, ptr %10, align 8, !tbaa !108
  %12 = icmp eq i32 %11, 0
  %13 = zext i1 %12 to i8
  store i8 %13, ptr %7, align 1, !tbaa !93
  %14 = load ptr, ptr %3, align 8, !tbaa !96
  %15 = getelementptr inbounds nuw %struct.tftp_state_data, ptr %14, i32 0, i32 4
  %16 = load ptr, ptr %15, align 8, !tbaa !106
  %17 = load i8, ptr %7, align 1, !tbaa !93, !range !118, !noundef !119
  %18 = trunc i8 %17 to i1
  %19 = call i64 @Curl_timeleft(ptr noundef %16, ptr noundef null, i1 noundef zeroext %18)
  store i64 %19, ptr %6, align 8, !tbaa !117
  %20 = load i64, ptr %6, align 8, !tbaa !117
  %21 = icmp slt i64 %20, 0
  br i1 %21, label %22, label %26

22:                                               ; preds = %1
  %23 = load ptr, ptr %3, align 8, !tbaa !96
  %24 = getelementptr inbounds nuw %struct.tftp_state_data, ptr %23, i32 0, i32 4
  %25 = load ptr, ptr %24, align 8, !tbaa !106
  call void (ptr, ptr, ...) @Curl_failf(ptr noundef %25, ptr noundef @.str.2)
  store i32 28, ptr %2, align 4
  store i32 1, ptr %8, align 4
  br label %128

26:                                               ; preds = %1
  %27 = load i64, ptr %6, align 8, !tbaa !117
  %28 = icmp sgt i64 %27, 0
  br i1 %28, label %29, label %33

29:                                               ; preds = %26
  %30 = load i64, ptr %6, align 8, !tbaa !117
  %31 = add nsw i64 %30, 500
  %32 = sdiv i64 %31, 1000
  store i64 %32, ptr %4, align 8, !tbaa !117
  br label %34

33:                                               ; preds = %26
  store i64 3600, ptr %4, align 8, !tbaa !117
  br label %34

34:                                               ; preds = %33, %29
  %35 = load i64, ptr %4, align 8, !tbaa !117
  store i64 %35, ptr %5, align 8, !tbaa !117
  %36 = load i64, ptr %5, align 8, !tbaa !117
  %37 = trunc i64 %36 to i32
  %38 = sdiv i32 %37, 5
  %39 = load ptr, ptr %3, align 8, !tbaa !96
  %40 = getelementptr inbounds nuw %struct.tftp_state_data, ptr %39, i32 0, i32 8
  store i32 %38, ptr %40, align 4, !tbaa !123
  %41 = load ptr, ptr %3, align 8, !tbaa !96
  %42 = getelementptr inbounds nuw %struct.tftp_state_data, ptr %41, i32 0, i32 8
  %43 = load i32, ptr %42, align 4, !tbaa !123
  %44 = icmp slt i32 %43, 3
  br i1 %44, label %45, label %48

45:                                               ; preds = %34
  %46 = load ptr, ptr %3, align 8, !tbaa !96
  %47 = getelementptr inbounds nuw %struct.tftp_state_data, ptr %46, i32 0, i32 8
  store i32 3, ptr %47, align 4, !tbaa !123
  br label %48

48:                                               ; preds = %45, %34
  %49 = load ptr, ptr %3, align 8, !tbaa !96
  %50 = getelementptr inbounds nuw %struct.tftp_state_data, ptr %49, i32 0, i32 8
  %51 = load i32, ptr %50, align 4, !tbaa !123
  %52 = icmp sgt i32 %51, 50
  br i1 %52, label %53, label %56

53:                                               ; preds = %48
  %54 = load ptr, ptr %3, align 8, !tbaa !96
  %55 = getelementptr inbounds nuw %struct.tftp_state_data, ptr %54, i32 0, i32 8
  store i32 50, ptr %55, align 4, !tbaa !123
  br label %56

56:                                               ; preds = %53, %48
  %57 = load i64, ptr %5, align 8, !tbaa !117
  %58 = load ptr, ptr %3, align 8, !tbaa !96
  %59 = getelementptr inbounds nuw %struct.tftp_state_data, ptr %58, i32 0, i32 8
  %60 = load i32, ptr %59, align 4, !tbaa !123
  %61 = sext i32 %60 to i64
  %62 = sdiv i64 %57, %61
  %63 = trunc i64 %62 to i32
  %64 = load ptr, ptr %3, align 8, !tbaa !96
  %65 = getelementptr inbounds nuw %struct.tftp_state_data, ptr %64, i32 0, i32 7
  store i32 %63, ptr %65, align 8, !tbaa !124
  %66 = load ptr, ptr %3, align 8, !tbaa !96
  %67 = getelementptr inbounds nuw %struct.tftp_state_data, ptr %66, i32 0, i32 7
  %68 = load i32, ptr %67, align 8, !tbaa !124
  %69 = icmp slt i32 %68, 1
  br i1 %69, label %70, label %73

70:                                               ; preds = %56
  %71 = load ptr, ptr %3, align 8, !tbaa !96
  %72 = getelementptr inbounds nuw %struct.tftp_state_data, ptr %71, i32 0, i32 7
  store i32 1, ptr %72, align 8, !tbaa !124
  br label %73

73:                                               ; preds = %70, %56
  br label %74

74:                                               ; preds = %73
  %75 = load ptr, ptr %3, align 8, !tbaa !96
  %76 = getelementptr inbounds nuw %struct.tftp_state_data, ptr %75, i32 0, i32 4
  %77 = load ptr, ptr %76, align 8, !tbaa !106
  %78 = icmp ne ptr %77, null
  br i1 %78, label %79, label %122

79:                                               ; preds = %74
  %80 = load ptr, ptr %3, align 8, !tbaa !96
  %81 = getelementptr inbounds nuw %struct.tftp_state_data, ptr %80, i32 0, i32 4
  %82 = load ptr, ptr %81, align 8, !tbaa !106
  %83 = getelementptr inbounds nuw %struct.Curl_easy, ptr %82, i32 0, i32 16
  %84 = getelementptr inbounds nuw %struct.UserDefined, ptr %83, i32 0, i32 119
  %85 = load i64, ptr %84, align 2
  %86 = lshr i64 %85, 31
  %87 = and i64 %86, 1
  %88 = trunc i64 %87 to i32
  %89 = icmp ne i32 %88, 0
  br i1 %89, label %90, label %122

90:                                               ; preds = %79
  %91 = load ptr, ptr %3, align 8, !tbaa !96
  %92 = getelementptr inbounds nuw %struct.tftp_state_data, ptr %91, i32 0, i32 4
  %93 = load ptr, ptr %92, align 8, !tbaa !106
  %94 = getelementptr inbounds nuw %struct.Curl_easy, ptr %93, i32 0, i32 21
  %95 = getelementptr inbounds nuw %struct.UrlState, ptr %94, i32 0, i32 50
  %96 = load ptr, ptr %95, align 8, !tbaa !125
  %97 = icmp ne ptr %96, null
  br i1 %97, label %98, label %108

98:                                               ; preds = %90
  %99 = load ptr, ptr %3, align 8, !tbaa !96
  %100 = getelementptr inbounds nuw %struct.tftp_state_data, ptr %99, i32 0, i32 4
  %101 = load ptr, ptr %100, align 8, !tbaa !106
  %102 = getelementptr inbounds nuw %struct.Curl_easy, ptr %101, i32 0, i32 21
  %103 = getelementptr inbounds nuw %struct.UrlState, ptr %102, i32 0, i32 50
  %104 = load ptr, ptr %103, align 8, !tbaa !125
  %105 = getelementptr inbounds nuw %struct.curl_trc_feat, ptr %104, i32 0, i32 1
  %106 = load i32, ptr %105, align 8, !tbaa !126
  %107 = icmp sge i32 %106, 1
  br i1 %107, label %108, label %122

108:                                              ; preds = %98, %90
  %109 = load ptr, ptr %3, align 8, !tbaa !96
  %110 = getelementptr inbounds nuw %struct.tftp_state_data, ptr %109, i32 0, i32 4
  %111 = load ptr, ptr %110, align 8, !tbaa !106
  %112 = load ptr, ptr %3, align 8, !tbaa !96
  %113 = getelementptr inbounds nuw %struct.tftp_state_data, ptr %112, i32 0, i32 0
  %114 = load i32, ptr %113, align 8, !tbaa !108
  %115 = load i64, ptr %6, align 8, !tbaa !117
  %116 = load ptr, ptr %3, align 8, !tbaa !96
  %117 = getelementptr inbounds nuw %struct.tftp_state_data, ptr %116, i32 0, i32 7
  %118 = load i32, ptr %117, align 8, !tbaa !124
  %119 = load ptr, ptr %3, align 8, !tbaa !96
  %120 = getelementptr inbounds nuw %struct.tftp_state_data, ptr %119, i32 0, i32 8
  %121 = load i32, ptr %120, align 4, !tbaa !123
  call void (ptr, ptr, ...) @Curl_infof(ptr noundef %111, ptr noundef @.str.3, i32 noundef %114, i64 noundef %115, i32 noundef %118, i32 noundef %121)
  br label %122

122:                                              ; preds = %108, %98, %79, %74
  br label %123

123:                                              ; preds = %122
  br label %124

124:                                              ; preds = %123
  %125 = call i64 @time(ptr noundef null) #6
  %126 = load ptr, ptr %3, align 8, !tbaa !96
  %127 = getelementptr inbounds nuw %struct.tftp_state_data, ptr %126, i32 0, i32 9
  store i64 %125, ptr %127, align 8, !tbaa !128
  store i32 0, ptr %2, align 4
  store i32 1, ptr %8, align 4
  br label %128

128:                                              ; preds = %124, %22
  call void @llvm.lifetime.end.p0(i64 1, ptr %7) #6
  call void @llvm.lifetime.end.p0(i64 8, ptr %6) #6
  call void @llvm.lifetime.end.p0(i64 8, ptr %5) #6
  call void @llvm.lifetime.end.p0(i64 8, ptr %4) #6
  %129 = load i32, ptr %2, align 4
  ret i32 %129
}