; Function Attrs: nounwind uwtable
define internal fastcc range(i32 0, 29) i32 @tftp_set_timeouts(ptr noundef captures(none) %0) unnamed_addr #0 {
  %2 = load i32, ptr %0, align 8, !tbaa !89
  %3 = icmp eq i32 %2, 0
  %4 = getelementptr inbounds nuw i8, ptr %0, i64 16
  %5 = load ptr, ptr %4, align 8, !tbaa !99
  %6 = tail call i64 @Curl_timeleft(ptr noundef %5, ptr noundef null, i1 noundef zeroext %3) #13
  %7 = icmp slt i64 %6, 0
  br i1 %7, label %8, label %10

8:                                                ; preds = %1
  %9 = load ptr, ptr %4, align 8, !tbaa !99
  tail call void (ptr, ptr, ...) @Curl_failf(ptr noundef %9, ptr noundef nonnull @.str.2) #13
  br label %41

10:                                               ; preds = %1
  %.not = icmp eq i64 %6, 0
  br i1 %.not, label %14, label %11

11:                                               ; preds = %10
  %12 = add nuw nsw i64 %6, 500
  %13 = udiv i64 %12, 1000
  br label %14

14:                                               ; preds = %10, %11
  %.029 = phi i64 [ %13, %11 ], [ 3600, %10 ]
  %15 = trunc i64 %.029 to i32
  %16 = sdiv i32 %15, 5
  %17 = getelementptr inbounds nuw i8, ptr %0, i64 36
  %18 = icmp slt i32 %15, 15
  %19 = tail call i32 @llvm.smin.i32(i32 %16, i32 50)
  %storemerge33 = select i1 %18, i32 3, i32 %19
  store i32 %storemerge33, ptr %17, align 4, !tbaa !124
  %20 = sext i32 %storemerge33 to i64
  %21 = sdiv i64 %.029, %20
  %22 = trunc i64 %21 to i32
  %23 = getelementptr inbounds nuw i8, ptr %0, i64 32
  %storemerge34 = tail call i32 @llvm.smax.i32(i32 %22, i32 1)
  store i32 %storemerge34, ptr %23, align 8, !tbaa !111
  %24 = load ptr, ptr %4, align 8, !tbaa !99
  %.not35 = icmp eq ptr %24, null
  br i1 %.not35, label %38, label %25

25:                                               ; preds = %14
  %26 = getelementptr inbounds nuw i8, ptr %24, i64 2658
  %27 = load i64, ptr %26, align 2
  %28 = and i64 %27, 2147483648
  %.not36 = icmp eq i64 %28, 0
  br i1 %.not36, label %38, label %29

29:                                               ; preds = %25
  %30 = getelementptr inbounds nuw i8, ptr %24, i64 4864
  %31 = load ptr, ptr %30, align 8, !tbaa !117
  %.not37 = icmp eq ptr %31, null
  br i1 %.not37, label %36, label %32

32:                                               ; preds = %29
  %33 = getelementptr inbounds nuw i8, ptr %31, i64 8
  %34 = load i32, ptr %33, align 8, !tbaa !118
  %35 = icmp sgt i32 %34, 0
  br i1 %35, label %36, label %38

36:                                               ; preds = %32, %29
  %37 = load i32, ptr %0, align 8, !tbaa !89
  tail call void (ptr, ptr, ...) @Curl_infof(ptr noundef nonnull %24, ptr noundef nonnull @.str.3, i32 noundef %37, i64 noundef %6, i32 noundef %storemerge34, i32 noundef %storemerge33) #13
  br label %38

38:                                               ; preds = %36, %32, %25, %14
  %39 = tail call i64 @time(ptr noundef null) #13
  %40 = getelementptr inbounds nuw i8, ptr %0, i64 40
  store i64 %39, ptr %40, align 8, !tbaa !110
  br label %41

41:                                               ; preds = %38, %8
  %.0 = phi i32 [ 28, %8 ], [ 0, %38 ]
  ret i32 %.0
}